; Function Attrs: mustprogress uwtable
define void @_ZNK3gmx11BiasSharing25sumOverSharingSimulationsENS_8ArrayRefIiEEi(ptr noundef nonnull readonly align 8 captures(none) dereferenceable(104) %0, ptr %1, ptr %2, i32 noundef %3) local_unnamed_addr #0 align 2 {
  %5 = ptrtoint ptr %2 to i64
  %6 = ptrtoint ptr %1 to i64
  %7 = sub i64 %5, %6
  %8 = getelementptr inbounds nuw i8, ptr %0, i64 48
  %9 = load ptr, ptr %8, align 8, !tbaa !126
  %10 = getelementptr inbounds nuw i8, ptr %9, i64 60
  %11 = load i32, ptr %10, align 4, !tbaa !15
  %12 = icmp ne i32 %11, 0
  %13 = getelementptr inbounds nuw i8, ptr %9, i64 56
  %14 = load i32, ptr %13, align 8
  %15 = icmp sgt i32 %14, 1
  %or.cond.i = select i1 %12, i1 %15, i1 false
  br i1 %or.cond.i, label %26, label %16

16:                                               ; preds = %4
  %17 = getelementptr inbounds nuw i8, ptr %0, i64 56
  %18 = load ptr, ptr %17, align 8, !tbaa !85
  %19 = sext i32 %3 to i64
  %20 = getelementptr inbounds nuw ptr, ptr %18, i64 %19
  %21 = load ptr, ptr %20, align 8, !tbaa !13
  %22 = lshr exact i64 %7, 2
  %23 = trunc i64 %22 to i32
  %24 = load ptr, ptr @TMPI_INT, align 8, !tbaa !38
  %25 = tail call noundef i32 @_Z14tMPI_AllreducePKvPviP14tmpi_datatype_7tMPI_OpP10tmpi_comm_(ptr noundef null, ptr noundef %1, i32 noundef %23, ptr noundef %24, i32 noundef 2, ptr noundef %21)
  br label %26

26:                                               ; preds = %16, %4
  %27 = getelementptr inbounds nuw i8, ptr %9, i64 40
  %28 = load i32, ptr %27, align 8
  %29 = icmp sgt i32 %28, 1
  br i1 %29, label %30, label %_ZN3gmx18sumOverSimulationsIiEEvNS_8ArrayRefIT_EEP10tmpi_comm_bRK9t_commrec.exit

30:                                               ; preds = %26
  %31 = getelementptr inbounds nuw i8, ptr %9, i64 32
  %32 = load ptr, ptr %31, align 8, !tbaa !89
  tail call void @_Z9gmx_bcastmPvP10tmpi_comm_(i64 noundef %7, ptr noundef %1, ptr noundef %32)
  br label %_ZN3gmx18sumOverSimulationsIiEEvNS_8ArrayRefIT_EEP10tmpi_comm_bRK9t_commrec.exit

_ZN3gmx18sumOverSimulationsIiEEvNS_8ArrayRefIT_EEP10tmpi_comm_bRK9t_commrec.exit: ; preds = %26, %30
  ret void
}